(i__main__
passengers
p0
(dp1
S'username'
p2
S'test-user'
p3
sS'b_no'
p4
(lp5
sS'name'
p6
S'Test'
p7
sS'pass_t_id'
p8
(lp9
sS'money'
p10
I5000
sS'security_ques'
p11
S'What is the name of your first pet?'
p12
sS'security_pas'
p13
S'Sandy'
p14
sS'mobile_no'
p15
S'1234567890'
p16
sS't_bill'
p17
(lp18
sS'password'
p19
S'1234'
p20
sS'email'
p21
S'testuser@gmail.com'
p22
sS't_ref'
p23
(lp24
sb.